; Function Attrs: nounwind uwtable
define internal fastcc ptr @get_range_io_data(ptr noundef readonly captures(none) %0, i32 noundef %1, i32 noundef range(i32 0, 4) %2) unnamed_addr #0 {
  %4 = alloca i16, align 2
  %5 = alloca i8, align 1
  %6 = alloca i8, align 1
  %7 = alloca i8, align 1
  %8 = alloca i32, align 4
  %9 = load ptr, ptr %0, align 8
  %10 = getelementptr inbounds nuw i8, ptr %9, i64 24
  %11 = load ptr, ptr %10, align 8
  %12 = icmp eq ptr %11, null
  br i1 %12, label %16, label %13

13:                                               ; preds = %3
  %14 = load ptr, ptr %11, align 8
  %15 = load i32, ptr %14, align 8
  %.not = icmp eq i32 %15, %1
  br i1 %.not, label %51, label %16

16:                                               ; preds = %13, %3
  call void @llvm.lifetime.start.p0(i64 2, ptr nonnull %4) #14
  call void @llvm.lifetime.start.p0(i64 1, ptr nonnull %5) #14
  call void @llvm.lifetime.start.p0(i64 1, ptr nonnull %6) #14
  call void @llvm.lifetime.start.p0(i64 1, ptr nonnull %7) #14
  call void @llvm.lifetime.start.p0(i64 4, ptr nonnull %8) #14
  %17 = getelementptr inbounds nuw i8, ptr %9, i64 32
  %18 = load ptr, ptr %17, align 8
  %19 = tail call ptr @MemoryContextAlloc(ptr noundef %18, i64 noundef 64) #14
  %20 = tail call ptr @lookup_type_cache(i32 noundef %1, i32 noundef 2048) #14
  store ptr %20, ptr %19, align 8
  %21 = getelementptr inbounds nuw i8, ptr %20, i64 280
  %22 = load ptr, ptr %21, align 8
  %23 = icmp eq ptr %22, null
  br i1 %23, label %24, label %27

24:                                               ; preds = %16
  %25 = tail call zeroext i1 @errstart_cold(i32 noundef 21, ptr noundef null) #16
  tail call void @llvm.assume(i1 %25)
  %26 = tail call i32 (ptr, ...) @errmsg_internal(ptr noundef nonnull @.str.12, i32 noundef %1) #14
  tail call void @errfinish(ptr noundef nonnull @.str.1, i32 noundef 333, ptr noundef nonnull @__func__.get_range_io_data) #14
  unreachable

27:                                               ; preds = %16
  %28 = load i32, ptr %22, align 8
  %29 = getelementptr inbounds nuw i8, ptr %19, i64 56
  call void @get_type_io_data(i32 noundef %28, i32 noundef %2, ptr noundef nonnull %4, ptr noundef nonnull %5, ptr noundef nonnull %6, ptr noundef nonnull %7, ptr noundef nonnull %29, ptr noundef nonnull %8) #14
  %30 = load i32, ptr %8, align 4
  %.not22 = icmp eq i32 %30, 0
  br i1 %.not22, label %31, label %44

31:                                               ; preds = %27
  %32 = icmp eq i32 %2, 2
  %33 = call zeroext i1 @errstart_cold(i32 noundef 21, ptr noundef null) #16
  call void @llvm.assume(i1 %33)
  %34 = call i32 @errcode(i32 noundef 52461700) #14
  %35 = load ptr, ptr %19, align 8
  %36 = getelementptr inbounds nuw i8, ptr %35, i64 280
  %37 = load ptr, ptr %36, align 8
  %38 = load i32, ptr %37, align 8
  %39 = call ptr @format_type_be(i32 noundef %38) #14
  br i1 %32, label %40, label %42

40:                                               ; preds = %31
  %41 = call i32 (ptr, ...) @errmsg(ptr noundef nonnull @.str.15, ptr noundef %39) #14
  call void @errfinish(ptr noundef nonnull @.str.1, i32 noundef 352, ptr noundef nonnull @__func__.get_range_io_data) #14
  unreachable

42:                                               ; preds = %31
  %43 = call i32 (ptr, ...) @errmsg(ptr noundef nonnull @.str.16, ptr noundef %39) #14
  call void @errfinish(ptr noundef nonnull @.str.1, i32 noundef 357, ptr noundef nonnull @__func__.get_range_io_data) #14
  unreachable

44:                                               ; preds = %27
  %45 = getelementptr inbounds nuw i8, ptr %19, i64 8
  %46 = load ptr, ptr %0, align 8
  %47 = getelementptr inbounds nuw i8, ptr %46, i64 32
  %48 = load ptr, ptr %47, align 8
  call void @fmgr_info_cxt(i32 noundef %30, ptr noundef nonnull %45, ptr noundef %48) #14
  %49 = load ptr, ptr %0, align 8
  %50 = getelementptr inbounds nuw i8, ptr %49, i64 24
  store ptr %19, ptr %50, align 8
  call void @llvm.lifetime.end.p0(i64 4, ptr nonnull %8) #14
  call void @llvm.lifetime.end.p0(i64 1, ptr nonnull %7) #14
  call void @llvm.lifetime.end.p0(i64 1, ptr nonnull %6) #14
  call void @llvm.lifetime.end.p0(i64 1, ptr nonnull %5) #14
  call void @llvm.lifetime.end.p0(i64 2, ptr nonnull %4) #14
  br label %51

51:                                               ; preds = %44, %13
  %.0 = phi ptr [ %19, %44 ], [ %11, %13 ]
  ret ptr %.0
}